; Function Attrs: mustprogress uwtable
define dso_local noundef zeroext i1 @_ZNK3net19SourceAddressTokens13IsInitializedEv(ptr nocapture noundef nonnull readonly align 8 dereferenceable(56) %this) unnamed_addr #1 align 2 personality ptr @__gxx_personality_v0 {
entry:
  %current_size_.i.i.i = getelementptr inbounds i8, ptr %this, i64 40
  %0 = load i32, ptr %current_size_.i.i.i, align 8
  %rep_.i.i.i = getelementptr inbounds i8, ptr %this, i64 48
  %1 = zext i32 %0 to i64
  br label %for.cond.i

for.cond.i:                                       ; preds = %for.body.i, %entry
  %indvars.iv.i = phi i64 [ %3, %for.body.i ], [ %1, %entry ]
  %2 = trunc i64 %indvars.iv.i to i32
  %cmp.i = icmp slt i32 %2, 1
  br i1 %cmp.i, label %_ZN6google8protobuf8internal17AllAreInitializedINS0_16RepeatedPtrFieldIN3net18SourceAddressTokenEEEEEbRKT_.exit, label %for.body.i

for.body.i:                                       ; preds = %for.cond.i
  %3 = add nsw i64 %indvars.iv.i, -1
  %4 = load ptr, ptr %rep_.i.i.i, align 8
  %elements.i.i.i = getelementptr inbounds i8, ptr %4, i64 8
  %arrayidx.i.i.i = getelementptr inbounds [1 x ptr], ptr %elements.i.i.i, i64 0, i64 %3
  %5 = load ptr, ptr %arrayidx.i.i.i, align 8
  %vtable.i = load ptr, ptr %5, align 8
  %vfn.i = getelementptr inbounds i8, ptr %vtable.i, i64 64
  %6 = load ptr, ptr %vfn.i, align 8
  %call2.i = tail call noundef zeroext i1 %6(ptr noundef nonnull align 8 dereferenceable(56) %5)
  br i1 %call2.i, label %for.cond.i, label %_ZN6google8protobuf8internal17AllAreInitializedINS0_16RepeatedPtrFieldIN3net18SourceAddressTokenEEEEEbRKT_.exit, !llvm.loop !12

_ZN6google8protobuf8internal17AllAreInitializedINS0_16RepeatedPtrFieldIN3net18SourceAddressTokenEEEEEbRKT_.exit: ; preds = %for.cond.i, %for.body.i
  ret i1 %cmp.i
}